
snowhousecpu-test-11.elf:     file format elf32-snowhousecpu


Disassembly of section .text:

00000000 <infin-0x20>:
	...
   c:	02 00 00 02 	add	r2, r0, 2
  10:	11 00 20 73 	lsl	r3, r2, 1
  14:	11 00 20 74 	lsl	r4, r2, 1
  18:	08 00 31 92 	str	r2, r3, 8
  1c:	08 00 30 94 	ldr	r4, r3, 8

00000020 <infin>:
  20:	ff ff 00 a0 	beq	r0, r0, -4
  24:	00 00 20 01 	add	r1, r2, 0
  28:	00 00 20 01 	add	r1, r2, 0
  2c:	00 00 20 01 	add	r1, r2, 0
  30:	00 00 20 01 	add	r1, r2, 0
  34:	00 00 20 01 	add	r1, r2, 0
  38:	00 00 20 01 	add	r1, r2, 0
  3c:	00 00 20 01 	add	r1, r2, 0
  40:	00 00 20 01 	add	r1, r2, 0
  44:	00 00 20 01 	add	r1, r2, 0
  48:	00 00 20 01 	add	r1, r2, 0
  4c:	00 00 20 01 	add	r1, r2, 0
  50:	00 00 20 01 	add	r1, r2, 0
  54:	00 00 20 01 	add	r1, r2, 0
  58:	00 00 20 01 	add	r1, r2, 0
  5c:	00 00 20 01 	add	r1, r2, 0
  60:	00 00 20 01 	add	r1, r2, 0
  64:	00 00 20 01 	add	r1, r2, 0
  68:	00 00 20 01 	add	r1, r2, 0
  6c:	00 00 20 01 	add	r1, r2, 0
  70:	00 00 20 01 	add	r1, r2, 0
  74:	00 00 20 01 	add	r1, r2, 0
  78:	00 00 20 01 	add	r1, r2, 0
  7c:	00 00 20 01 	add	r1, r2, 0
  80:	00 00 20 01 	add	r1, r2, 0
  84:	00 00 20 01 	add	r1, r2, 0
  88:	00 00 20 01 	add	r1, r2, 0
  8c:	00 00 20 01 	add	r1, r2, 0
  90:	00 00 20 01 	add	r1, r2, 0
  94:	00 00 20 01 	add	r1, r2, 0
  98:	00 00 20 01 	add	r1, r2, 0
  9c:	00 00 20 01 	add	r1, r2, 0
  a0:	00 00 20 01 	add	r1, r2, 0
  a4:	00 00 20 01 	add	r1, r2, 0
  a8:	00 00 20 01 	add	r1, r2, 0
  ac:	00 00 20 01 	add	r1, r2, 0
  b0:	00 00 20 01 	add	r1, r2, 0
  b4:	00 00 20 01 	add	r1, r2, 0
  b8:	00 00 20 01 	add	r1, r2, 0
  bc:	00 00 20 01 	add	r1, r2, 0
  c0:	00 00 20 01 	add	r1, r2, 0
  c4:	00 00 20 01 	add	r1, r2, 0
  c8:	00 00 20 01 	add	r1, r2, 0
  cc:	00 00 20 01 	add	r1, r2, 0
  d0:	00 00 20 01 	add	r1, r2, 0
  d4:	00 00 20 01 	add	r1, r2, 0
  d8:	00 00 20 01 	add	r1, r2, 0
  dc:	00 00 20 01 	add	r1, r2, 0
  e0:	00 00 20 01 	add	r1, r2, 0
  e4:	00 00 20 01 	add	r1, r2, 0
  e8:	00 00 20 01 	add	r1, r2, 0
  ec:	00 00 20 01 	add	r1, r2, 0
  f0:	00 00 20 01 	add	r1, r2, 0
  f4:	00 00 20 01 	add	r1, r2, 0
  f8:	00 00 20 01 	add	r1, r2, 0
  fc:	00 00 20 01 	add	r1, r2, 0
 100:	00 00 20 01 	add	r1, r2, 0
 104:	00 00 20 01 	add	r1, r2, 0
 108:	00 00 20 01 	add	r1, r2, 0
 10c:	00 00 20 01 	add	r1, r2, 0
 110:	00 00 20 01 	add	r1, r2, 0
 114:	00 00 20 01 	add	r1, r2, 0
 118:	00 00 20 01 	add	r1, r2, 0
 11c:	00 00 20 01 	add	r1, r2, 0
 120:	00 00 20 01 	add	r1, r2, 0
 124:	00 00 20 01 	add	r1, r2, 0
 128:	00 00 20 01 	add	r1, r2, 0
 12c:	00 00 20 01 	add	r1, r2, 0
 130:	00 00 20 01 	add	r1, r2, 0
 134:	00 00 20 01 	add	r1, r2, 0
 138:	00 00 20 01 	add	r1, r2, 0
 13c:	00 00 20 01 	add	r1, r2, 0
 140:	00 00 20 01 	add	r1, r2, 0
 144:	00 00 20 01 	add	r1, r2, 0
 148:	00 00 20 01 	add	r1, r2, 0
 14c:	00 00 20 01 	add	r1, r2, 0
 150:	00 00 20 01 	add	r1, r2, 0
 154:	00 00 20 01 	add	r1, r2, 0
 158:	00 00 20 01 	add	r1, r2, 0
 15c:	00 00 20 01 	add	r1, r2, 0
 160:	00 00 20 01 	add	r1, r2, 0
 164:	00 00 20 01 	add	r1, r2, 0
 168:	00 00 20 01 	add	r1, r2, 0
 16c:	00 00 20 01 	add	r1, r2, 0
 170:	00 00 20 01 	add	r1, r2, 0
 174:	00 00 20 01 	add	r1, r2, 0
 178:	00 00 20 01 	add	r1, r2, 0
 17c:	00 00 20 01 	add	r1, r2, 0
 180:	00 00 20 01 	add	r1, r2, 0
 184:	00 00 20 01 	add	r1, r2, 0
 188:	00 00 20 01 	add	r1, r2, 0
 18c:	00 00 20 01 	add	r1, r2, 0
 190:	00 00 20 01 	add	r1, r2, 0
 194:	00 00 20 01 	add	r1, r2, 0
 198:	00 00 20 01 	add	r1, r2, 0
 19c:	00 00 20 01 	add	r1, r2, 0
 1a0:	00 00 20 01 	add	r1, r2, 0
 1a4:	00 00 20 01 	add	r1, r2, 0
 1a8:	00 00 20 01 	add	r1, r2, 0
 1ac:	00 00 20 01 	add	r1, r2, 0
 1b0:	00 00 20 01 	add	r1, r2, 0
 1b4:	00 00 20 01 	add	r1, r2, 0
 1b8:	00 00 20 01 	add	r1, r2, 0
 1bc:	00 00 20 01 	add	r1, r2, 0
 1c0:	00 00 20 01 	add	r1, r2, 0
 1c4:	00 00 20 01 	add	r1, r2, 0
 1c8:	00 00 20 01 	add	r1, r2, 0
 1cc:	00 00 20 01 	add	r1, r2, 0
 1d0:	00 00 20 01 	add	r1, r2, 0
 1d4:	00 00 20 01 	add	r1, r2, 0
 1d8:	00 00 20 01 	add	r1, r2, 0
 1dc:	00 00 20 01 	add	r1, r2, 0
 1e0:	00 00 20 01 	add	r1, r2, 0
 1e4:	00 00 20 01 	add	r1, r2, 0
 1e8:	00 00 20 01 	add	r1, r2, 0
 1ec:	00 00 20 01 	add	r1, r2, 0
 1f0:	00 00 20 01 	add	r1, r2, 0
 1f4:	00 00 20 01 	add	r1, r2, 0
 1f8:	00 00 20 01 	add	r1, r2, 0
 1fc:	00 00 20 01 	add	r1, r2, 0
 200:	00 00 20 01 	add	r1, r2, 0
 204:	00 00 20 01 	add	r1, r2, 0
 208:	00 00 20 01 	add	r1, r2, 0
 20c:	00 00 20 01 	add	r1, r2, 0
 210:	00 00 20 01 	add	r1, r2, 0
 214:	00 00 20 01 	add	r1, r2, 0
 218:	00 00 20 01 	add	r1, r2, 0
 21c:	00 00 20 01 	add	r1, r2, 0
 220:	00 00 20 01 	add	r1, r2, 0
 224:	00 00 20 01 	add	r1, r2, 0
 228:	00 00 20 01 	add	r1, r2, 0
 22c:	00 00 20 01 	add	r1, r2, 0
 230:	00 00 20 01 	add	r1, r2, 0
 234:	00 00 20 01 	add	r1, r2, 0
 238:	00 00 20 01 	add	r1, r2, 0
 23c:	00 00 20 01 	add	r1, r2, 0
 240:	00 00 20 01 	add	r1, r2, 0
 244:	00 00 20 01 	add	r1, r2, 0
 248:	00 00 20 01 	add	r1, r2, 0
 24c:	00 00 20 01 	add	r1, r2, 0
 250:	00 00 20 01 	add	r1, r2, 0
 254:	00 00 20 01 	add	r1, r2, 0
 258:	00 00 20 01 	add	r1, r2, 0
 25c:	00 00 20 01 	add	r1, r2, 0
 260:	00 00 20 01 	add	r1, r2, 0
 264:	00 00 20 01 	add	r1, r2, 0
 268:	00 00 20 01 	add	r1, r2, 0
 26c:	00 00 20 01 	add	r1, r2, 0
 270:	00 00 20 01 	add	r1, r2, 0
 274:	00 00 20 01 	add	r1, r2, 0
 278:	00 00 20 01 	add	r1, r2, 0
 27c:	00 00 20 01 	add	r1, r2, 0
 280:	00 00 20 01 	add	r1, r2, 0
 284:	00 00 20 01 	add	r1, r2, 0
 288:	00 00 20 01 	add	r1, r2, 0
 28c:	00 00 20 01 	add	r1, r2, 0
 290:	00 00 20 01 	add	r1, r2, 0
 294:	00 00 20 01 	add	r1, r2, 0
 298:	00 00 20 01 	add	r1, r2, 0
 29c:	00 00 20 01 	add	r1, r2, 0
 2a0:	00 00 20 01 	add	r1, r2, 0
 2a4:	00 00 20 01 	add	r1, r2, 0
 2a8:	00 00 20 01 	add	r1, r2, 0
 2ac:	00 00 20 01 	add	r1, r2, 0
 2b0:	00 00 20 01 	add	r1, r2, 0
 2b4:	00 00 20 01 	add	r1, r2, 0
 2b8:	00 00 20 01 	add	r1, r2, 0
 2bc:	00 00 20 01 	add	r1, r2, 0
 2c0:	00 00 20 01 	add	r1, r2, 0
 2c4:	00 00 20 01 	add	r1, r2, 0
 2c8:	00 00 20 01 	add	r1, r2, 0
 2cc:	00 00 20 01 	add	r1, r2, 0
 2d0:	00 00 20 01 	add	r1, r2, 0
 2d4:	00 00 20 01 	add	r1, r2, 0
 2d8:	00 00 20 01 	add	r1, r2, 0
 2dc:	00 00 20 01 	add	r1, r2, 0
 2e0:	00 00 20 01 	add	r1, r2, 0
 2e4:	00 00 20 01 	add	r1, r2, 0
 2e8:	00 00 20 01 	add	r1, r2, 0
 2ec:	00 00 20 01 	add	r1, r2, 0
 2f0:	00 00 20 01 	add	r1, r2, 0
 2f4:	00 00 20 01 	add	r1, r2, 0
 2f8:	00 00 20 01 	add	r1, r2, 0
 2fc:	00 00 20 01 	add	r1, r2, 0
 300:	00 00 20 01 	add	r1, r2, 0
 304:	00 00 20 01 	add	r1, r2, 0
 308:	00 00 20 01 	add	r1, r2, 0
 30c:	00 00 20 01 	add	r1, r2, 0
 310:	00 00 20 01 	add	r1, r2, 0
 314:	00 00 20 01 	add	r1, r2, 0
 318:	00 00 20 01 	add	r1, r2, 0
 31c:	00 00 20 01 	add	r1, r2, 0
 320:	00 00 20 01 	add	r1, r2, 0
 324:	00 00 20 01 	add	r1, r2, 0
 328:	00 00 20 01 	add	r1, r2, 0
 32c:	00 00 20 01 	add	r1, r2, 0
 330:	00 00 20 01 	add	r1, r2, 0
 334:	00 00 20 01 	add	r1, r2, 0
 338:	00 00 20 01 	add	r1, r2, 0
 33c:	00 00 20 01 	add	r1, r2, 0
 340:	00 00 20 01 	add	r1, r2, 0

00000344 <fwd_br_dst>:
 344:	00 00 15 01 	add	r1, r1, r5
